target datalayout = "e-m:e-p270:32:32-p271:32:32-p272:64:64-i64:64-i128:128-f80:128-n8:16:32:64-S128"
target triple = "x86_64-pc-linux-gnu"

%"struct.(anonymous namespace)::IntRange" = type <{ i32, i8, [3 x i8] }>

; Function Attrs: mustprogress nounwind uwtable
define internal void @_ZN12_GLOBAL__N_18IntRangeC2Ejb(ptr noundef nonnull align 4 dereferenceable(5) %0, i32 noundef %1, i1 noundef zeroext %2) unnamed_addr #0 align 2 {
  %4 = alloca ptr, align 8
  %5 = alloca i32, align 4
  %6 = alloca i8, align 1
  store ptr %0, ptr %4, align 8
  store i32 %1, ptr %5, align 4
  %7 = zext i1 %2 to i8
  store i8 %7, ptr %6, align 1
  %8 = load ptr, ptr %4, align 8
  %9 = getelementptr inbounds nuw %"struct.(anonymous namespace)::IntRange", ptr %8, i32 0, i32 0
  %10 = load i32, ptr %5, align 4
  store i32 %10, ptr %9, align 4
  %11 = getelementptr inbounds nuw %"struct.(anonymous namespace)::IntRange", ptr %8, i32 0, i32 1
  %12 = load i8, ptr %6, align 1
  %13 = trunc i8 %12 to i1
  %14 = zext i1 %13 to i8
  store i8 %14, ptr %11, align 4
  ret void
}

; Function Attrs: mustprogress nounwind uwtable
define linkonce_odr noundef nonnull align 4 dereferenceable(4) ptr @_ZSt3minIjERKT_S2_S2_(ptr noundef nonnull align 4 dereferenceable(4) %0, ptr noundef nonnull align 4 dereferenceable(4) %1) #0 comdat {
  %3 = alloca ptr, align 8
  %4 = alloca ptr, align 8
  %5 = alloca ptr, align 8
  store ptr %0, ptr %4, align 8
  store ptr %1, ptr %5, align 8
  %6 = load ptr, ptr %5, align 8
  %7 = load i32, ptr %6, align 4
  %8 = load ptr, ptr %4, align 8
  %9 = load i32, ptr %8, align 4
  %10 = icmp ult i32 %7, %9
  br i1 %10, label %11, label %13

11:                                               ; preds = %2
  %12 = load ptr, ptr %5, align 8
  store ptr %12, ptr %3, align 8
  br label %15

13:                                               ; preds = %2
  %14 = load ptr, ptr %4, align 8
  store ptr %14, ptr %3, align 8
  br label %15

15:                                               ; preds = %13, %11
  %16 = load ptr, ptr %3, align 8
  ret ptr %16
}

; Function Attrs: mustprogress nounwind uwtable
define internal noundef i32 @_ZNK12_GLOBAL__N_18IntRange9valueBitsEv(ptr noundef nonnull align 4 dereferenceable(5) %0) #0 align 2 {
  %2 = alloca ptr, align 8
  store ptr %0, ptr %2, align 8
  %3 = load ptr, ptr %2, align 8
  %4 = getelementptr inbounds nuw %"struct.(anonymous namespace)::IntRange", ptr %3, i32 0, i32 1
  %5 = load i8, ptr %4, align 4
  %6 = trunc i8 %5 to i1
  br i1 %6, label %7, label %10

7:                                                ; preds = %1
  %8 = getelementptr inbounds nuw %"struct.(anonymous namespace)::IntRange", ptr %3, i32 0, i32 0
  %9 = load i32, ptr %8, align 4
  br label %14

10:                                               ; preds = %1
  %11 = getelementptr inbounds nuw %"struct.(anonymous namespace)::IntRange", ptr %3, i32 0, i32 0
  %12 = load i32, ptr %11, align 4
  %13 = sub i32 %12, 1
  br label %14

14:                                               ; preds = %10, %7
  %15 = phi i32 [ %9, %7 ], [ %13, %10 ]
  ret i32 %15
}

; Function Attrs: mustprogress nounwind uwtable
define internal i64 @_ZN12_GLOBAL__N_18IntRange3remES0_S0_(i64 %0, i64 %1) #0 align 2 {
  %3 = alloca %"struct.(anonymous namespace)::IntRange", align 4
  %4 = alloca %"struct.(anonymous namespace)::IntRange", align 4
  %5 = alloca %"struct.(anonymous namespace)::IntRange", align 4
  %6 = alloca i8, align 1
  %7 = alloca i32, align 4
  %8 = alloca i32, align 4
  store i64 %0, ptr %4, align 4
  store i64 %1, ptr %5, align 4
  %9 = getelementptr inbounds nuw %"struct.(anonymous namespace)::IntRange", ptr %4, i32 0, i32 1
  %10 = load i8, ptr %9, align 4
  %11 = trunc i8 %10 to i1
  %12 = zext i1 %11 to i8
  store i8 %12, ptr %6, align 1
  %13 = call noundef i32 @_ZNK12_GLOBAL__N_18IntRange9valueBitsEv(ptr noundef nonnull align 4 dereferenceable(5) %4)
  store i32 %13, ptr %7, align 4
  %14 = call noundef i32 @_ZNK12_GLOBAL__N_18IntRange9valueBitsEv(ptr noundef nonnull align 4 dereferenceable(5) %5)
  store i32 %14, ptr %8, align 4
  %15 = call noundef nonnull align 4 dereferenceable(4) ptr @_ZSt3minIjERKT_S2_S2_(ptr noundef nonnull align 4 dereferenceable(4) %7, ptr noundef nonnull align 4 dereferenceable(4) %8)
  %16 = load i32, ptr %15, align 4
  %17 = load i8, ptr %6, align 1
  %18 = trunc i8 %17 to i1
  %19 = xor i1 %18, true
  %20 = zext i1 %19 to i32
  %21 = add i32 %16, %20
  %22 = load i8, ptr %6, align 1
  %23 = trunc i8 %22 to i1
  call void @_ZN12_GLOBAL__N_18IntRangeC2Ejb(ptr noundef nonnull align 4 dereferenceable(5) %3, i32 noundef %21, i1 noundef zeroext %23)
  %24 = load i64, ptr %3, align 4
  ret i64 %24
}