; Function Attrs: mustprogress nofree norecurse nosync nounwind willreturn memory(none) uwtable
define internal range(i64 0, 8589934592) i64 @_ZN12_GLOBAL__N_18IntRange3remES0_S0_(i64 %0, i64 %1) unnamed_addr #8 align 2 {
  %.sroa.08.0.extract.trunc = trunc i64 %0 to i32
  %.sroa.29.0.extract.shift = lshr i64 %0, 32
  %.sroa.29.0.extract.trunc = trunc nuw i64 %.sroa.29.0.extract.shift to i32
  %.sroa.0.0.extract.trunc = trunc i64 %1 to i32
  %.sroa.2.0.extract.shift = lshr i64 %1, 32
  %.sroa.2.0.extract.trunc = trunc nuw i64 %.sroa.2.0.extract.shift to i32
  %3 = and i32 %.sroa.29.0.extract.trunc, 1
  %4 = xor i32 %3, 1
  %5 = sub i32 %.sroa.08.0.extract.trunc, %4
  %6 = and i32 %.sroa.2.0.extract.trunc, 1
  %7 = xor i32 %6, 1
  %8 = sub i32 %.sroa.0.0.extract.trunc, %7
  %.sroa.speculated = tail call i32 @llvm.umin.i32(i32 %8, i32 %5)
  %9 = add i32 %.sroa.speculated, %4
  %.sroa.211.0.insert.shift = and i64 %0, 4294967296
  %.sroa.010.0.insert.ext = zext i32 %9 to i64
  %.sroa.010.0.insert.insert = or disjoint i64 %.sroa.211.0.insert.shift, %.sroa.010.0.insert.ext
  ret i64 %.sroa.010.0.insert.insert
}